; Function Attrs: mustprogress uwtable
define dso_local noundef nonnull align 8 dereferenceable(88) ptr @_ZN4Luau11TypePackVaraSERKS0_(ptr noundef nonnull returned align 8 dereferenceable(88) %0, ptr noundef nonnull align 8 dereferenceable(88) %1) local_unnamed_addr #2 align 2 personality ptr @__gxx_personality_v0 {
  %3 = alloca %"class.Luau::Variant", align 8
  call void @llvm.lifetime.start.p0(i64 72, ptr nonnull %3) #26
  %4 = load i32, ptr %1, align 8, !tbaa !49
  store i32 %4, ptr %3, align 8, !tbaa !49
  %5 = sext i32 %4 to i64
  %6 = getelementptr inbounds [8 x ptr], ptr @_ZZN4Luau7VariantIJNS_9Unifiable5BoundIPKNS_11TypePackVarEEENS1_5ErrorIS5_EENS_12FreeTypePackENS_15GenericTypePackENS_8TypePackENS_16VariadicTypePackENS_15BlockedTypePackENS_28TypeFunctionInstanceTypePackEEEC1ERKSF_E5table, i64 0, i64 %5
  %7 = load ptr, ptr %6, align 8, !tbaa !51
  %8 = getelementptr inbounds nuw i8, ptr %3, i64 8
  %9 = getelementptr inbounds nuw i8, ptr %1, i64 8
  call void %7(ptr noundef nonnull %8, ptr noundef nonnull %9)
  %.not.i.i.i = icmp eq ptr %0, %3
  br i1 %.not.i.i.i, label %_ZN4Luau7VariantIJNS_9Unifiable5BoundIPKNS_11TypePackVarEEENS1_5ErrorIS5_EENS_12FreeTypePackENS_15GenericTypePackENS_8TypePackENS_16VariadicTypePackENS_15BlockedTypePackENS_28TypeFunctionInstanceTypePackEEEaSEOSF_.exit.i.i, label %10

10:                                               ; preds = %2
  %11 = load i32, ptr %0, align 8, !tbaa !49
  %12 = sext i32 %11 to i64
  %13 = getelementptr inbounds [8 x ptr], ptr @_ZN4Luau7VariantIJNS_9Unifiable5BoundIPKNS_11TypePackVarEEENS1_5ErrorIS5_EENS_12FreeTypePackENS_15GenericTypePackENS_8TypePackENS_16VariadicTypePackENS_15BlockedTypePackENS_28TypeFunctionInstanceTypePackEEE9tableDtorE, i64 0, i64 %12
  %14 = load ptr, ptr %13, align 8, !tbaa !51
  %15 = getelementptr inbounds nuw i8, ptr %0, i64 8
  invoke void %14(ptr noundef nonnull %15)
          to label %.noexc.i.i unwind label %27

.noexc.i.i:                                       ; preds = %10
  %16 = load i32, ptr %3, align 8, !tbaa !49
  store i32 %16, ptr %0, align 8, !tbaa !49
  %17 = sext i32 %16 to i64
  %18 = getelementptr inbounds [8 x ptr], ptr @_ZN4Luau7VariantIJNS_9Unifiable5BoundIPKNS_11TypePackVarEEENS1_5ErrorIS5_EENS_12FreeTypePackENS_15GenericTypePackENS_8TypePackENS_16VariadicTypePackENS_15BlockedTypePackENS_28TypeFunctionInstanceTypePackEEE9tableMoveE, i64 0, i64 %17
  %19 = load ptr, ptr %18, align 8, !tbaa !51
  invoke void %19(ptr noundef nonnull %15, ptr noundef nonnull %8)
          to label %_ZN4Luau7VariantIJNS_9Unifiable5BoundIPKNS_11TypePackVarEEENS1_5ErrorIS5_EENS_12FreeTypePackENS_15GenericTypePackENS_8TypePackENS_16VariadicTypePackENS_15BlockedTypePackENS_28TypeFunctionInstanceTypePackEEEaSEOSF_.exit.i.i unwind label %27

_ZN4Luau7VariantIJNS_9Unifiable5BoundIPKNS_11TypePackVarEEENS1_5ErrorIS5_EENS_12FreeTypePackENS_15GenericTypePackENS_8TypePackENS_16VariadicTypePackENS_15BlockedTypePackENS_28TypeFunctionInstanceTypePackEEEaSEOSF_.exit.i.i: ; preds = %.noexc.i.i, %2
  %20 = load i32, ptr %3, align 8, !tbaa !49
  %21 = sext i32 %20 to i64
  %22 = getelementptr inbounds [8 x ptr], ptr @_ZN4Luau7VariantIJNS_9Unifiable5BoundIPKNS_11TypePackVarEEENS1_5ErrorIS5_EENS_12FreeTypePackENS_15GenericTypePackENS_8TypePackENS_16VariadicTypePackENS_15BlockedTypePackENS_28TypeFunctionInstanceTypePackEEE9tableDtorE, i64 0, i64 %21
  %23 = load ptr, ptr %22, align 8, !tbaa !51
  invoke void %23(ptr noundef nonnull %8)
          to label %_ZN4Luau11TypePackVar8reassignERKS0_.exit unwind label %24

24:                                               ; preds = %_ZN4Luau7VariantIJNS_9Unifiable5BoundIPKNS_11TypePackVarEEENS1_5ErrorIS5_EENS_12FreeTypePackENS_15GenericTypePackENS_8TypePackENS_16VariadicTypePackENS_15BlockedTypePackENS_28TypeFunctionInstanceTypePackEEEaSEOSF_.exit.i.i
  %25 = landingpad { ptr, i32 }
          catch ptr null
  %26 = extractvalue { ptr, i32 } %25, 0
  call void @__clang_call_terminate(ptr %26) #27
  unreachable

27:                                               ; preds = %.noexc.i.i, %10
  %28 = landingpad { ptr, i32 }
          cleanup
  %29 = load i32, ptr %3, align 8, !tbaa !49
  %30 = sext i32 %29 to i64
  %31 = getelementptr inbounds [8 x ptr], ptr @_ZN4Luau7VariantIJNS_9Unifiable5BoundIPKNS_11TypePackVarEEENS1_5ErrorIS5_EENS_12FreeTypePackENS_15GenericTypePackENS_8TypePackENS_16VariadicTypePackENS_15BlockedTypePackENS_28TypeFunctionInstanceTypePackEEE9tableDtorE, i64 0, i64 %30
  %32 = load ptr, ptr %31, align 8, !tbaa !51
  invoke void %32(ptr noundef nonnull %8)
          to label %_ZN4Luau7VariantIJNS_9Unifiable5BoundIPKNS_11TypePackVarEEENS1_5ErrorIS5_EENS_12FreeTypePackENS_15GenericTypePackENS_8TypePackENS_16VariadicTypePackENS_15BlockedTypePackENS_28TypeFunctionInstanceTypePackEEED2Ev.exit4.i.i unwind label %33

33:                                               ; preds = %27
  %34 = landingpad { ptr, i32 }
          catch ptr null
  %35 = extractvalue { ptr, i32 } %34, 0
  call void @__clang_call_terminate(ptr %35) #27
  unreachable

_ZN4Luau7VariantIJNS_9Unifiable5BoundIPKNS_11TypePackVarEEENS1_5ErrorIS5_EENS_12FreeTypePackENS_15GenericTypePackENS_8TypePackENS_16VariadicTypePackENS_15BlockedTypePackENS_28TypeFunctionInstanceTypePackEEED2Ev.exit4.i.i: ; preds = %27
  call void @llvm.lifetime.end.p0(i64 72, ptr nonnull %3) #26
  resume { ptr, i32 } %28

_ZN4Luau11TypePackVar8reassignERKS0_.exit:        ; preds = %_ZN4Luau7VariantIJNS_9Unifiable5BoundIPKNS_11TypePackVarEEENS1_5ErrorIS5_EENS_12FreeTypePackENS_15GenericTypePackENS_8TypePackENS_16VariadicTypePackENS_15BlockedTypePackENS_28TypeFunctionInstanceTypePackEEEaSEOSF_.exit.i.i
  call void @llvm.lifetime.end.p0(i64 72, ptr nonnull %3) #26
  ret ptr %0
}